; ModuleID = 'bench/linux/original/exstoren.ll'
source_filename = "bench/linux/original/exstoren.ll"
target datalayout = "e-m:e-p270:32:32-p271:32:32-p272:64:64-i64:64-i128:128-f80:128-n8:16:32:64-S128"
target triple = "x86_64-unknown-linux-gnu"

@_acpi_module_name = internal constant [9 x i8] c"exstoren\00", align 1
@.str = private unnamed_addr constant [59 x i8] c"Cannot assign type [%s] to [%s] (must be type Int/Str/Buf)\00", align 1
@.str.1 = private unnamed_addr constant [38 x i8] c"Store into an unresolved Alias object\00", align 1
@.str.2 = private unnamed_addr constant [37 x i8] c"Store into type [%s] not implemented\00", align 1

; Function Attrs: fn_ret_thunk_extern nounwind null_pointer_is_valid
define dso_local i32 @acpi_ex_resolve_object(ptr noundef %0, i32 noundef %1, ptr noundef %2) local_unnamed_addr #0 align 16 {
  %4 = load ptr, ptr %0, align 8
  switch i32 %1, label %26 [
    i32 14, label %5
    i32 17, label %5
    i32 18, label %5
    i32 19, label %5
    i32 1, label %5
    i32 2, label %5
    i32 3, label %5
    i32 21, label %25
    i32 22, label %25
  ]

5:                                                ; preds = %3, %3, %3, %3, %3, %3, %3
  %6 = getelementptr inbounds i8, ptr %4, i64 9
  %7 = load i8, ptr %6, align 1
  %8 = icmp eq i8 %7, 20
  br i1 %8, label %9, label %12

9:                                                ; preds = %5
  %10 = tail call i32 @acpi_ex_resolve_to_value(ptr noundef %0, ptr noundef %2) #3
  %11 = icmp eq i32 %10, 0
  br i1 %11, label %12, label %26

12:                                               ; preds = %9, %5
  %13 = getelementptr inbounds i8, ptr %2, i64 10
  %14 = load i16, ptr %13, align 2
  %15 = icmp eq i16 %14, 157
  br i1 %15, label %26, label %16

16:                                               ; preds = %12
  %17 = load i8, ptr %6, align 1
  switch i8 %17, label %22 [
    i8 1, label %26
    i8 3, label %26
    i8 2, label %26
    i8 20, label %18
  ]

18:                                               ; preds = %16
  %19 = getelementptr inbounds i8, ptr %4, i64 13
  %20 = load i8, ptr %19, align 1
  %21 = icmp eq i8 %20, 4
  br i1 %21, label %26, label %22

22:                                               ; preds = %18, %16
  %23 = tail call ptr @acpi_ut_get_object_type_name(ptr noundef %4) #3
  %24 = tail call ptr @acpi_ut_get_type_name(i32 noundef %1) #3
  tail call void (ptr, i32, ptr, ...) @acpi_error(ptr noundef nonnull @_acpi_module_name, i32 noundef 90, ptr noundef nonnull @.str, ptr noundef %23, ptr noundef %24) #3
  br label %26

25:                                               ; preds = %3, %3
  tail call void (ptr, i32, ptr, ...) @acpi_error(ptr noundef nonnull @_acpi_module_name, i32 noundef 105, ptr noundef nonnull @.str.1) #3
  br label %26

26:                                               ; preds = %25, %22, %18, %16, %16, %16, %12, %9, %3
  %27 = phi i32 [ 0, %3 ], [ 12303, %25 ], [ %10, %9 ], [ 0, %12 ], [ 0, %18 ], [ 12291, %22 ], [ 0, %16 ], [ 0, %16 ], [ 0, %16 ]
  ret i32 %27
}

; Function Attrs: mustprogress nocallback nofree nosync nounwind willreturn memory(argmem: readwrite)
declare void @llvm.lifetime.start.p0(i64 immarg, ptr nocapture) #1

; Function Attrs: null_pointer_is_valid
declare dso_local i32 @acpi_ex_resolve_to_value(ptr noundef, ptr noundef) local_unnamed_addr #2

; Function Attrs: null_pointer_is_valid
declare dso_local void @acpi_error(ptr noundef, i32 noundef, ptr noundef, ...) local_unnamed_addr #2

; Function Attrs: null_pointer_is_valid
declare dso_local ptr @acpi_ut_get_object_type_name(ptr noundef) local_unnamed_addr #2

; Function Attrs: null_pointer_is_valid
declare dso_local ptr @acpi_ut_get_type_name(i32 noundef) local_unnamed_addr #2

; Function Attrs: mustprogress nocallback nofree nosync nounwind willreturn memory(argmem: readwrite)
declare void @llvm.lifetime.end.p0(i64 immarg, ptr nocapture) #1

; Function Attrs: fn_ret_thunk_extern nounwind null_pointer_is_valid
define dso_local i32 @acpi_ex_store_object_to_object(ptr noundef %0, ptr noundef %1, ptr noundef %2, ptr noundef %3) local_unnamed_addr #0 align 16 {
  %5 = alloca ptr, align 8
  %6 = alloca ptr, align 8
  store ptr %1, ptr %5, align 8
  call void @llvm.lifetime.start.p0(i64 8, ptr nonnull %6) #3
  store ptr %0, ptr %6, align 8
  %7 = icmp eq ptr %1, null
  br i1 %7, label %8, label %10

8:                                                ; preds = %4
  %9 = tail call i32 @acpi_ut_copy_iobject_to_iobject(ptr noundef %0, ptr noundef %2, ptr noundef %3) #3
  br label %47

10:                                               ; preds = %4
  %11 = getelementptr inbounds i8, ptr %0, i64 9
  %12 = load i8, ptr %11, align 1
  %13 = getelementptr inbounds i8, ptr %1, i64 9
  %14 = load i8, ptr %13, align 1
  %15 = icmp eq i8 %12, %14
  br i1 %15, label %24, label %16

16:                                               ; preds = %10
  %17 = zext i8 %14 to i32
  %18 = call i32 @acpi_ex_convert_to_target_type(i32 noundef %17, ptr noundef %0, ptr noundef nonnull %6, ptr noundef %3) #3
  %19 = icmp eq i32 %18, 0
  br i1 %19, label %20, label %47

20:                                               ; preds = %16
  %21 = load ptr, ptr %6, align 8
  %22 = icmp eq ptr %21, %0
  br i1 %22, label %23, label %._crit_edge

._crit_edge:                                      ; preds = %20
  %.pre = load i8, ptr %13, align 1
  br label %24

23:                                               ; preds = %20
  store ptr %0, ptr %2, align 8
  br label %47

24:                                               ; preds = %._crit_edge, %10
  %25 = phi ptr [ %21, %._crit_edge ], [ %0, %10 ]
  %26 = phi i8 [ %.pre, %._crit_edge ], [ %12, %10 ]
  switch i8 %26, label %38 [
    i8 1, label %27
    i8 2, label %32
    i8 3, label %34
    i8 4, label %36
  ]

27:                                               ; preds = %24
  %28 = getelementptr inbounds i8, ptr %25, i64 16
  %29 = load i64, ptr %28, align 8
  %30 = getelementptr inbounds i8, ptr %1, i64 16
  store i64 %29, ptr %30, align 8
  %31 = call zeroext i8 @acpi_ex_truncate_for32bit_table(ptr noundef nonnull %1) #3
  br label %40

32:                                               ; preds = %24
  %33 = call i32 @acpi_ex_store_string_to_string(ptr noundef %25, ptr noundef nonnull %1) #3
  br label %40

34:                                               ; preds = %24
  %35 = call i32 @acpi_ex_store_buffer_to_buffer(ptr noundef %25, ptr noundef nonnull %1) #3
  br label %40

36:                                               ; preds = %24
  %37 = call i32 @acpi_ut_copy_iobject_to_iobject(ptr noundef %25, ptr noundef nonnull %5, ptr noundef %3) #3
  br label %40

38:                                               ; preds = %24
  %39 = call ptr @acpi_ut_get_object_type_name(ptr noundef nonnull %1) #3
  call void (ptr, i32, ptr, ...) @acpi_warning(ptr noundef nonnull @_acpi_module_name, i32 noundef 245, ptr noundef nonnull @.str.2, ptr noundef %39) #3
  br label %40

40:                                               ; preds = %38, %36, %34, %32, %27
  %41 = phi i32 [ 14, %38 ], [ %37, %36 ], [ %35, %34 ], [ %33, %32 ], [ 0, %27 ]
  %42 = load ptr, ptr %6, align 8
  %43 = icmp eq ptr %42, %0
  br i1 %43, label %45, label %44

44:                                               ; preds = %40
  call void @acpi_ut_remove_reference(ptr noundef %42) #3
  br label %45

45:                                               ; preds = %44, %40
  %46 = load ptr, ptr %5, align 8
  store ptr %46, ptr %2, align 8
  br label %47

47:                                               ; preds = %45, %23, %16, %8
  %48 = phi i32 [ 0, %23 ], [ %41, %45 ], [ %9, %8 ], [ %18, %16 ]
  call void @llvm.lifetime.end.p0(i64 8, ptr nonnull %6) #3
  ret i32 %48
}

; Function Attrs: null_pointer_is_valid
declare dso_local i32 @acpi_ut_copy_iobject_to_iobject(ptr noundef, ptr noundef, ptr noundef) local_unnamed_addr #2

; Function Attrs: null_pointer_is_valid
declare dso_local i32 @acpi_ex_convert_to_target_type(i32 noundef, ptr noundef, ptr noundef, ptr noundef) local_unnamed_addr #2

; Function Attrs: null_pointer_is_valid
declare dso_local zeroext i8 @acpi_ex_truncate_for32bit_table(ptr noundef) local_unnamed_addr #2

; Function Attrs: null_pointer_is_valid
declare dso_local i32 @acpi_ex_store_string_to_string(ptr noundef, ptr noundef) local_unnamed_addr #2

; Function Attrs: null_pointer_is_valid
declare dso_local i32 @acpi_ex_store_buffer_to_buffer(ptr noundef, ptr noundef) local_unnamed_addr #2

; Function Attrs: null_pointer_is_valid
declare dso_local void @acpi_warning(ptr noundef, i32 noundef, ptr noundef, ...) local_unnamed_addr #2

; Function Attrs: null_pointer_is_valid
declare dso_local void @acpi_ut_remove_reference(ptr noundef) local_unnamed_addr #2


!llvm.module.flags = !{!0, !1, !2, !3, !4}

!0 = !{i32 1, !"wchar_size", i32 2}
!1 = !{i32 8, !"cf-protection-branch", i32 1}
!2 = !{i32 4, !"function_return_thunk_extern", i32 1}
!3 = !{i32 4, !"indirect_branch_cs_prefix", i32 1}
!4 = !{i32 4, !"SkipRaxSetup", i32 1}
